; Function Attrs: mustprogress uwtable
define hidden void @_ZN4cvc58internal6theory7strings7EqcInfoC2EPNS_7context7ContextE(ptr noundef nonnull align 8 dereferenceable(288) %0, ptr noundef %1) unnamed_addr #3 align 2 personality ptr @__gxx_personality_v0 {
  tail call void @_ZN4cvc57context10ContextObjC2EPNS0_7ContextE(ptr noundef nonnull align 8 dereferenceable(48) %0, ptr noundef %1)
  store ptr getelementptr inbounds nuw inrange(-16, 32) (i8, ptr @_ZTVN4cvc57context3CDOINS_8internal12NodeTemplateILb1EEEEE, i64 16), ptr %0, align 8, !tbaa !3
  %3 = load atomic i8, ptr @_ZGVZN4cvc58internal4expr9NodeValue4nullEvE6s_null acquire, align 8
  %4 = icmp eq i8 %3, 0
  br i1 %4, label %5, label %_ZN4cvc57context3CDOINS_8internal12NodeTemplateILb1EEEEC2EPNS0_7ContextE.exit, !prof !6

5:                                                ; preds = %2
  %6 = tail call i32 @__cxa_guard_acquire(ptr nonnull @_ZGVZN4cvc58internal4expr9NodeValue4nullEvE6s_null) #19
  %.not.i.i.i = icmp eq i32 %6, 0
  br i1 %.not.i.i.i, label %_ZN4cvc57context3CDOINS_8internal12NodeTemplateILb1EEEEC2EPNS0_7ContextE.exit, label %7

7:                                                ; preds = %5
  %8 = invoke noalias noundef nonnull dereferenceable(24) ptr @_Znwm(i64 noundef 24) #20
          to label %9 unwind label %.body.i

9:                                                ; preds = %7
  store i64 1152920405095219200, ptr %8, align 8
  %10 = getelementptr inbounds nuw i8, ptr %8, i64 8
  tail call void @llvm.memset.p0.i64(ptr noundef nonnull align 8 dereferenceable(16) %10, i8 0, i64 16, i1 false)
  store ptr %8, ptr @_ZZN4cvc58internal4expr9NodeValue4nullEvE6s_null, align 8, !tbaa !7
  tail call void @__cxa_guard_release(ptr nonnull @_ZGVZN4cvc58internal4expr9NodeValue4nullEvE6s_null) #19
  br label %_ZN4cvc57context3CDOINS_8internal12NodeTemplateILb1EEEEC2EPNS0_7ContextE.exit

common.resume:                                    ; preds = %.body, %.body.i
  %common.resume.op = phi { ptr, i32 } [ %11, %.body.i ], [ %.pn.pn.pn.pn, %.body ]
  resume { ptr, i32 } %common.resume.op

.body.i:                                          ; preds = %7
  %11 = landingpad { ptr, i32 }
          cleanup
  tail call void @__cxa_guard_abort(ptr nonnull @_ZGVZN4cvc58internal4expr9NodeValue4nullEvE6s_null) #19
  br label %common.resume

_ZN4cvc57context3CDOINS_8internal12NodeTemplateILb1EEEEC2EPNS0_7ContextE.exit: ; preds = %2, %5, %9
  %12 = getelementptr inbounds nuw i8, ptr %0, i64 40
  %13 = load ptr, ptr @_ZZN4cvc58internal4expr9NodeValue4nullEvE6s_null, align 8, !tbaa !7
  store ptr %13, ptr %12, align 8, !tbaa !11
  %14 = getelementptr inbounds nuw i8, ptr %0, i64 48
  invoke void @_ZN4cvc57context10ContextObjC2EPNS0_7ContextE(ptr noundef nonnull align 8 dereferenceable(48) %14, ptr noundef %1)
          to label %.noexc unwind label %69

.noexc:                                           ; preds = %_ZN4cvc57context3CDOINS_8internal12NodeTemplateILb1EEEEC2EPNS0_7ContextE.exit
  store ptr getelementptr inbounds nuw inrange(-16, 32) (i8, ptr @_ZTVN4cvc57context3CDOINS_8internal12NodeTemplateILb1EEEEE, i64 16), ptr %14, align 8, !tbaa !3
  %15 = load atomic i8, ptr @_ZGVZN4cvc58internal4expr9NodeValue4nullEvE6s_null acquire, align 8
  %16 = icmp eq i8 %15, 0
  br i1 %16, label %17, label %24, !prof !6

17:                                               ; preds = %.noexc
  %18 = tail call i32 @__cxa_guard_acquire(ptr nonnull @_ZGVZN4cvc58internal4expr9NodeValue4nullEvE6s_null) #19
  %.not.i.i.i16 = icmp eq i32 %18, 0
  br i1 %.not.i.i.i16, label %24, label %19

19:                                               ; preds = %17
  %20 = invoke noalias noundef nonnull dereferenceable(24) ptr @_Znwm(i64 noundef 24) #20
          to label %21 unwind label %.body.i17

21:                                               ; preds = %19
  store i64 1152920405095219200, ptr %20, align 8
  %22 = getelementptr inbounds nuw i8, ptr %20, i64 8
  tail call void @llvm.memset.p0.i64(ptr noundef nonnull align 8 dereferenceable(16) %22, i8 0, i64 16, i1 false)
  store ptr %20, ptr @_ZZN4cvc58internal4expr9NodeValue4nullEvE6s_null, align 8, !tbaa !7
  tail call void @__cxa_guard_release(ptr nonnull @_ZGVZN4cvc58internal4expr9NodeValue4nullEvE6s_null) #19
  br label %24

.body.i17:                                        ; preds = %19
  %23 = landingpad { ptr, i32 }
          cleanup
  tail call void @__cxa_guard_abort(ptr nonnull @_ZGVZN4cvc58internal4expr9NodeValue4nullEvE6s_null) #19
  br label %.body

24:                                               ; preds = %21, %17, %.noexc
  %25 = getelementptr inbounds nuw i8, ptr %0, i64 88
  %26 = load ptr, ptr @_ZZN4cvc58internal4expr9NodeValue4nullEvE6s_null, align 8, !tbaa !7
  store ptr %26, ptr %25, align 8, !tbaa !11
  %27 = getelementptr inbounds nuw i8, ptr %0, i64 96
  invoke void @_ZN4cvc57context10ContextObjC2EPNS0_7ContextE(ptr noundef nonnull align 8 dereferenceable(44) %27, ptr noundef %1)
          to label %28 unwind label %71

28:                                               ; preds = %24
  store ptr getelementptr inbounds nuw inrange(-16, 32) (i8, ptr @_ZTVN4cvc57context3CDOIjEE, i64 16), ptr %27, align 8, !tbaa !3
  %29 = getelementptr inbounds nuw i8, ptr %0, i64 136
  store i32 0, ptr %29, align 8, !tbaa !13
  %30 = getelementptr inbounds nuw i8, ptr %0, i64 144
  invoke void @_ZN4cvc57context10ContextObjC2EPNS0_7ContextE(ptr noundef nonnull align 8 dereferenceable(48) %30, ptr noundef %1)
          to label %.noexc22 unwind label %73

.noexc22:                                         ; preds = %28
  store ptr getelementptr inbounds nuw inrange(-16, 32) (i8, ptr @_ZTVN4cvc57context3CDOINS_8internal12NodeTemplateILb1EEEEE, i64 16), ptr %30, align 8, !tbaa !3
  %31 = load atomic i8, ptr @_ZGVZN4cvc58internal4expr9NodeValue4nullEvE6s_null acquire, align 8
  %32 = icmp eq i8 %31, 0
  br i1 %32, label %33, label %40, !prof !6

33:                                               ; preds = %.noexc22
  %34 = tail call i32 @__cxa_guard_acquire(ptr nonnull @_ZGVZN4cvc58internal4expr9NodeValue4nullEvE6s_null) #19
  %.not.i.i.i20 = icmp eq i32 %34, 0
  br i1 %.not.i.i.i20, label %40, label %35

35:                                               ; preds = %33
  %36 = invoke noalias noundef nonnull dereferenceable(24) ptr @_Znwm(i64 noundef 24) #20
          to label %37 unwind label %.body.i21

37:                                               ; preds = %35
  store i64 1152920405095219200, ptr %36, align 8
  %38 = getelementptr inbounds nuw i8, ptr %36, i64 8
  tail call void @llvm.memset.p0.i64(ptr noundef nonnull align 8 dereferenceable(16) %38, i8 0, i64 16, i1 false)
  store ptr %36, ptr @_ZZN4cvc58internal4expr9NodeValue4nullEvE6s_null, align 8, !tbaa !7
  tail call void @__cxa_guard_release(ptr nonnull @_ZGVZN4cvc58internal4expr9NodeValue4nullEvE6s_null) #19
  br label %40

.body.i21:                                        ; preds = %35
  %39 = landingpad { ptr, i32 }
          cleanup
  tail call void @__cxa_guard_abort(ptr nonnull @_ZGVZN4cvc58internal4expr9NodeValue4nullEvE6s_null) #19
  br label %.body23

40:                                               ; preds = %37, %33, %.noexc22
  %41 = getelementptr inbounds nuw i8, ptr %0, i64 184
  %42 = load ptr, ptr @_ZZN4cvc58internal4expr9NodeValue4nullEvE6s_null, align 8, !tbaa !7
  store ptr %42, ptr %41, align 8, !tbaa !11
  %43 = getelementptr inbounds nuw i8, ptr %0, i64 192
  invoke void @_ZN4cvc57context10ContextObjC2EPNS0_7ContextE(ptr noundef nonnull align 8 dereferenceable(48) %43, ptr noundef %1)
          to label %.noexc28 unwind label %75

.noexc28:                                         ; preds = %40
  store ptr getelementptr inbounds nuw inrange(-16, 32) (i8, ptr @_ZTVN4cvc57context3CDOINS_8internal12NodeTemplateILb1EEEEE, i64 16), ptr %43, align 8, !tbaa !3
  %44 = load atomic i8, ptr @_ZGVZN4cvc58internal4expr9NodeValue4nullEvE6s_null acquire, align 8
  %45 = icmp eq i8 %44, 0
  br i1 %45, label %46, label %53, !prof !6

46:                                               ; preds = %.noexc28
  %47 = tail call i32 @__cxa_guard_acquire(ptr nonnull @_ZGVZN4cvc58internal4expr9NodeValue4nullEvE6s_null) #19
  %.not.i.i.i26 = icmp eq i32 %47, 0
  br i1 %.not.i.i.i26, label %53, label %48

48:                                               ; preds = %46
  %49 = invoke noalias noundef nonnull dereferenceable(24) ptr @_Znwm(i64 noundef 24) #20
          to label %50 unwind label %.body.i27

50:                                               ; preds = %48
  store i64 1152920405095219200, ptr %49, align 8
  %51 = getelementptr inbounds nuw i8, ptr %49, i64 8
  tail call void @llvm.memset.p0.i64(ptr noundef nonnull align 8 dereferenceable(16) %51, i8 0, i64 16, i1 false)
  store ptr %49, ptr @_ZZN4cvc58internal4expr9NodeValue4nullEvE6s_null, align 8, !tbaa !7
  tail call void @__cxa_guard_release(ptr nonnull @_ZGVZN4cvc58internal4expr9NodeValue4nullEvE6s_null) #19
  br label %53

.body.i27:                                        ; preds = %48
  %52 = landingpad { ptr, i32 }
          cleanup
  tail call void @__cxa_guard_abort(ptr nonnull @_ZGVZN4cvc58internal4expr9NodeValue4nullEvE6s_null) #19
  br label %.body29

53:                                               ; preds = %50, %46, %.noexc28
  %54 = getelementptr inbounds nuw i8, ptr %0, i64 232
  %55 = load ptr, ptr @_ZZN4cvc58internal4expr9NodeValue4nullEvE6s_null, align 8, !tbaa !7
  store ptr %55, ptr %54, align 8, !tbaa !11
  %56 = getelementptr inbounds nuw i8, ptr %0, i64 240
  invoke void @_ZN4cvc57context10ContextObjC2EPNS0_7ContextE(ptr noundef nonnull align 8 dereferenceable(48) %56, ptr noundef %1)
          to label %.noexc34 unwind label %77

.noexc34:                                         ; preds = %53
  store ptr getelementptr inbounds nuw inrange(-16, 32) (i8, ptr @_ZTVN4cvc57context3CDOINS_8internal12NodeTemplateILb1EEEEE, i64 16), ptr %56, align 8, !tbaa !3
  %57 = load atomic i8, ptr @_ZGVZN4cvc58internal4expr9NodeValue4nullEvE6s_null acquire, align 8
  %58 = icmp eq i8 %57, 0
  br i1 %58, label %59, label %66, !prof !6

59:                                               ; preds = %.noexc34
  %60 = tail call i32 @__cxa_guard_acquire(ptr nonnull @_ZGVZN4cvc58internal4expr9NodeValue4nullEvE6s_null) #19
  %.not.i.i.i32 = icmp eq i32 %60, 0
  br i1 %.not.i.i.i32, label %66, label %61

61:                                               ; preds = %59
  %62 = invoke noalias noundef nonnull dereferenceable(24) ptr @_Znwm(i64 noundef 24) #20
          to label %63 unwind label %.body.i33

63:                                               ; preds = %61
  store i64 1152920405095219200, ptr %62, align 8
  %64 = getelementptr inbounds nuw i8, ptr %62, i64 8
  tail call void @llvm.memset.p0.i64(ptr noundef nonnull align 8 dereferenceable(16) %64, i8 0, i64 16, i1 false)
  store ptr %62, ptr @_ZZN4cvc58internal4expr9NodeValue4nullEvE6s_null, align 8, !tbaa !7
  tail call void @__cxa_guard_release(ptr nonnull @_ZGVZN4cvc58internal4expr9NodeValue4nullEvE6s_null) #19
  br label %66

.body.i33:                                        ; preds = %61
  %65 = landingpad { ptr, i32 }
          cleanup
  tail call void @__cxa_guard_abort(ptr nonnull @_ZGVZN4cvc58internal4expr9NodeValue4nullEvE6s_null) #19
  br label %.body35

66:                                               ; preds = %63, %59, %.noexc34
  %67 = getelementptr inbounds nuw i8, ptr %0, i64 280
  %68 = load ptr, ptr @_ZZN4cvc58internal4expr9NodeValue4nullEvE6s_null, align 8, !tbaa !7
  store ptr %68, ptr %67, align 8, !tbaa !11
  ret void

69:                                               ; preds = %_ZN4cvc57context3CDOINS_8internal12NodeTemplateILb1EEEEC2EPNS0_7ContextE.exit
  %70 = landingpad { ptr, i32 }
          cleanup
  br label %.body

71:                                               ; preds = %24
  %72 = landingpad { ptr, i32 }
          cleanup
  br label %79

73:                                               ; preds = %28
  %74 = landingpad { ptr, i32 }
          cleanup
  br label %.body23

75:                                               ; preds = %40
  %76 = landingpad { ptr, i32 }
          cleanup
  br label %.body29

77:                                               ; preds = %53
  %78 = landingpad { ptr, i32 }
          cleanup
  br label %.body35

.body35:                                          ; preds = %.body.i33, %77
  %eh.lpad-body36 = phi { ptr, i32 } [ %78, %77 ], [ %65, %.body.i33 ]
  tail call void @_ZN4cvc57context3CDOINS_8internal12NodeTemplateILb1EEEED2Ev(ptr noundef nonnull align 8 dereferenceable(48) %43) #19
  br label %.body29

.body29:                                          ; preds = %75, %.body.i27, %.body35
  %.pn = phi { ptr, i32 } [ %eh.lpad-body36, %.body35 ], [ %76, %75 ], [ %52, %.body.i27 ]
  tail call void @_ZN4cvc57context3CDOINS_8internal12NodeTemplateILb1EEEED2Ev(ptr noundef nonnull align 8 dereferenceable(48) %30) #19
  br label %.body23

.body23:                                          ; preds = %73, %.body.i21, %.body29
  %.pn.pn = phi { ptr, i32 } [ %.pn, %.body29 ], [ %74, %73 ], [ %39, %.body.i21 ]
  tail call void @_ZN4cvc57context3CDOIjED2Ev(ptr noundef nonnull align 8 dereferenceable(44) %27) #19
  br label %79

79:                                               ; preds = %.body23, %71
  %.pn.pn.pn = phi { ptr, i32 } [ %.pn.pn, %.body23 ], [ %72, %71 ]
  tail call void @_ZN4cvc57context3CDOINS_8internal12NodeTemplateILb1EEEED2Ev(ptr noundef nonnull align 8 dereferenceable(48) %14) #19
  br label %.body

.body:                                            ; preds = %69, %.body.i17, %79
  %.pn.pn.pn.pn = phi { ptr, i32 } [ %.pn.pn.pn, %79 ], [ %70, %69 ], [ %23, %.body.i17 ]
  tail call void @_ZN4cvc57context3CDOINS_8internal12NodeTemplateILb1EEEED2Ev(ptr noundef nonnull align 8 dereferenceable(48) %0) #19
  br label %common.resume
}